target datalayout = "e-m:e-p270:32:32-p271:32:32-p272:64:64-i64:64-i128:128-f80:128-n8:16:32:64-S128"
target triple = "x86_64-pc-linux-gnu"

%struct.SDL_VideoDevice = type { ptr, ptr, ptr, ptr, ptr, ptr, ptr, ptr, ptr, ptr, ptr, ptr, ptr, ptr, ptr, ptr, ptr, ptr, ptr, ptr, ptr, ptr, ptr, ptr, ptr, ptr, ptr, ptr, ptr, ptr, ptr, ptr, ptr, ptr, ptr, ptr, ptr, ptr, ptr, ptr, ptr, ptr, ptr, ptr, ptr, ptr, ptr, ptr, ptr, ptr, ptr, ptr, ptr, ptr, ptr, ptr, ptr, ptr, ptr, ptr, ptr, ptr, ptr, ptr, ptr, ptr, ptr, ptr, ptr, ptr, ptr, ptr, ptr, ptr, ptr, ptr, ptr, ptr, ptr, ptr, ptr, ptr, ptr, ptr, ptr, ptr, ptr, ptr, ptr, ptr, ptr, ptr, ptr, ptr, ptr, ptr, ptr, i64, i8, i8, i8, ptr, i32, ptr, %struct.SDL_Rect, ptr, ptr, i32, ptr, ptr, ptr, ptr, i64, ptr, i8, i32, i32, %struct.anon, ptr, ptr, ptr, ptr, ptr, ptr, %struct.SDL_AtomicInt, %struct.SDL_AtomicInt, i8, %struct.anon.0, ptr, ptr, ptr, ptr, ptr }
%struct.SDL_Rect = type { i32, i32, i32, i32 }
%struct.anon = type { i32, i32, i32, i32, i32, i32, i32, i32, i32, i32, i32, i32, i32, i32, i32, i32, i32, i32, i32, i32, i32, i32, i32, i32, i32, i32, i32, i32, i32, [256 x i8], ptr }
%struct.SDL_AtomicInt = type { i32 }
%struct.anon.0 = type { ptr, ptr, i32, [256 x i8], ptr }

@.str.1 = private unnamed_addr constant [1 x i8] zeroinitializer, align 1
@SDL_GetTextMimeTypes.text_mime_types = internal global [1 x ptr] [ptr @.str.6], align 8

; Function Attrs: nounwind uwtable
define internal ptr @SDL_GetTextMimeTypes(ptr noundef %0, ptr noundef %1) #0 {
  %3 = alloca ptr, align 8
  %4 = alloca ptr, align 8
  %5 = alloca ptr, align 8
  store ptr %0, ptr %4, align 8
  store ptr %1, ptr %5, align 8
  %6 = load ptr, ptr %4, align 8
  %7 = getelementptr inbounds nuw %struct.SDL_VideoDevice, ptr %6, i32 0, i32 83
  %8 = load ptr, ptr %7, align 8
  %9 = icmp ne ptr %8, null
  br i1 %9, label %10, label %17

10:                                               ; preds = %2
  %11 = load ptr, ptr %4, align 8
  %12 = getelementptr inbounds nuw %struct.SDL_VideoDevice, ptr %11, i32 0, i32 83
  %13 = load ptr, ptr %12, align 8
  %14 = load ptr, ptr %4, align 8
  %15 = load ptr, ptr %5, align 8
  %16 = call ptr %13(ptr noundef %14, ptr noundef %15)
  store ptr %16, ptr %3, align 8
  br label %19

17:                                               ; preds = %2
  %18 = load ptr, ptr %5, align 8
  store i64 1, ptr %18, align 8
  store ptr @SDL_GetTextMimeTypes.text_mime_types, ptr %3, align 8
  br label %19

19:                                               ; preds = %17, %10
  %20 = load ptr, ptr %3, align 8
  ret ptr %20
}

; Function Attrs: nounwind uwtable
define hidden ptr @SDL_GetClipboardText_REAL() #0 {
  %1 = alloca ptr, align 8
  %2 = alloca ptr, align 8
  %3 = alloca i64, align 8
  %4 = alloca i64, align 8
  %5 = alloca ptr, align 8
  %6 = alloca i64, align 8
  %7 = alloca ptr, align 8
  %8 = alloca i32, align 4
  %9 = alloca ptr, align 8
  call void @llvm.lifetime.start.p0(i64 8, ptr %2) #5
  %10 = call ptr @SDL_GetVideoDevice()
  store ptr %10, ptr %2, align 8
  call void @llvm.lifetime.start.p0(i64 8, ptr %3) #5
  call void @llvm.lifetime.start.p0(i64 8, ptr %4) #5
  call void @llvm.lifetime.start.p0(i64 8, ptr %5) #5
  call void @llvm.lifetime.start.p0(i64 8, ptr %6) #5
  call void @llvm.lifetime.start.p0(i64 8, ptr %7) #5
  store ptr null, ptr %7, align 8
  %11 = load ptr, ptr %2, align 8
  %12 = icmp ne ptr %11, null
  br i1 %12, label %16, label %13

13:                                               ; preds = %0
  %14 = call zeroext i1 @SDL_UninitializedVideo()
  %15 = call noalias ptr @SDL_strdup_REAL(ptr noundef @.str.1)
  store ptr %15, ptr %1, align 8
  store i32 1, ptr %8, align 4
  br label %47

16:                                               ; preds = %0
  %17 = load ptr, ptr %2, align 8
  %18 = call ptr @SDL_GetTextMimeTypes(ptr noundef %17, ptr noundef %4)
  store ptr %18, ptr %5, align 8
  store i64 0, ptr %3, align 8
  br label %19

19:                                               ; preds = %37, %16
  %20 = load i64, ptr %3, align 8
  %21 = load i64, ptr %4, align 8
  %22 = icmp ult i64 %20, %21
  br i1 %22, label %23, label %40

23:                                               ; preds = %19
  call void @llvm.lifetime.start.p0(i64 8, ptr %9) #5
  %24 = load ptr, ptr %5, align 8
  %25 = load i64, ptr %3, align 8
  %26 = getelementptr inbounds nuw ptr, ptr %24, i64 %25
  %27 = load ptr, ptr %26, align 8
  %28 = call ptr @SDL_GetClipboardData_REAL(ptr noundef %27, ptr noundef %6)
  store ptr %28, ptr %9, align 8
  %29 = load ptr, ptr %9, align 8
  %30 = icmp ne ptr %29, null
  br i1 %30, label %31, label %33

31:                                               ; preds = %23
  %32 = load ptr, ptr %9, align 8
  store ptr %32, ptr %7, align 8
  store i32 2, ptr %8, align 4
  br label %34

33:                                               ; preds = %23
  store i32 0, ptr %8, align 4
  br label %34

34:                                               ; preds = %33, %31
  call void @llvm.lifetime.end.p0(i64 8, ptr %9) #5
  %35 = load i32, ptr %8, align 4
  switch i32 %35, label %49 [
    i32 0, label %36
    i32 2, label %40
  ]

36:                                               ; preds = %34
  br label %37

37:                                               ; preds = %36
  %38 = load i64, ptr %3, align 8
  %39 = add i64 %38, 1
  store i64 %39, ptr %3, align 8
  br label %19, !llvm.loop !13

40:                                               ; preds = %34, %19
  %41 = load ptr, ptr %7, align 8
  %42 = icmp ne ptr %41, null
  br i1 %42, label %45, label %43

43:                                               ; preds = %40
  %44 = call noalias ptr @SDL_strdup_REAL(ptr noundef @.str.1)
  store ptr %44, ptr %7, align 8
  br label %45

45:                                               ; preds = %43, %40
  %46 = load ptr, ptr %7, align 8
  store ptr %46, ptr %1, align 8
  store i32 1, ptr %8, align 4
  br label %47

47:                                               ; preds = %45, %13
  call void @llvm.lifetime.end.p0(i64 8, ptr %7) #5
  call void @llvm.lifetime.end.p0(i64 8, ptr %6) #5
  call void @llvm.lifetime.end.p0(i64 8, ptr %5) #5
  call void @llvm.lifetime.end.p0(i64 8, ptr %4) #5
  call void @llvm.lifetime.end.p0(i64 8, ptr %3) #5
  call void @llvm.lifetime.end.p0(i64 8, ptr %2) #5
  %48 = load ptr, ptr %1, align 8
  ret ptr %48

49:                                               ; preds = %34
  unreachable
}