; Function Attrs: nounwind uwtable
define hidden ptr @SDL_GetClipboardText_REAL() local_unnamed_addr #0 {
  %1 = alloca i64, align 8
  %2 = alloca i64, align 8
  %3 = tail call ptr @SDL_GetVideoDevice() #6
  call void @llvm.lifetime.start.p0(i64 8, ptr nonnull %1) #6
  call void @llvm.lifetime.start.p0(i64 8, ptr nonnull %2) #6
  %.not = icmp eq ptr %3, null
  br i1 %.not, label %4, label %7

4:                                                ; preds = %0
  %5 = tail call zeroext i1 @SDL_UninitializedVideo() #6
  %6 = tail call noalias ptr @SDL_strdup_REAL(ptr noundef nonnull @.str.1) #6
  br label %._crit_edge

7:                                                ; preds = %0
  %8 = getelementptr inbounds nuw i8, ptr %3, i64 664
  %9 = load ptr, ptr %8, align 8
  %.not.i = icmp eq ptr %9, null
  br i1 %.not.i, label %SDL_GetTextMimeTypes.exit.thread, label %SDL_GetTextMimeTypes.exit

SDL_GetTextMimeTypes.exit.thread:                 ; preds = %7
  store i64 1, ptr %1, align 8
  br label %.lr.ph.preheader

SDL_GetTextMimeTypes.exit:                        ; preds = %7
  %10 = call ptr %9(ptr noundef nonnull %3, ptr noundef nonnull %1) #6
  %.pre = load i64, ptr %1, align 8
  %11 = icmp eq i64 %.pre, 0
  br i1 %11, label %.loopexit, label %.lr.ph.preheader

.lr.ph.preheader:                                 ; preds = %SDL_GetTextMimeTypes.exit.thread, %SDL_GetTextMimeTypes.exit
  %.0.i24 = phi ptr [ @SDL_GetTextMimeTypes.text_mime_types, %SDL_GetTextMimeTypes.exit.thread ], [ %10, %SDL_GetTextMimeTypes.exit ]
  br label %.lr.ph

12:                                               ; preds = %.lr.ph
  %13 = add nuw i64 %.01318, 1
  %14 = load i64, ptr %1, align 8
  %15 = icmp ult i64 %13, %14
  br i1 %15, label %.lr.ph, label %.loopexit, !llvm.loop !11

.lr.ph:                                           ; preds = %.lr.ph.preheader, %12
  %.01318 = phi i64 [ %13, %12 ], [ 0, %.lr.ph.preheader ]
  %16 = getelementptr inbounds nuw ptr, ptr %.0.i24, i64 %.01318
  %17 = load ptr, ptr %16, align 8
  %18 = call ptr @SDL_GetClipboardData_REAL(ptr noundef %17, ptr noundef nonnull %2)
  %.not16 = icmp eq ptr %18, null
  br i1 %.not16, label %12, label %._crit_edge

.loopexit:                                        ; preds = %12, %SDL_GetTextMimeTypes.exit
  %19 = call noalias ptr @SDL_strdup_REAL(ptr noundef nonnull @.str.1) #6
  br label %._crit_edge

._crit_edge:                                      ; preds = %.lr.ph, %.loopexit, %4
  %.0 = phi ptr [ %6, %4 ], [ %19, %.loopexit ], [ %18, %.lr.ph ]
  call void @llvm.lifetime.end.p0(i64 8, ptr nonnull %2) #6
  call void @llvm.lifetime.end.p0(i64 8, ptr nonnull %1) #6
  ret ptr %.0
}